target datalayout = "e-m:e-p270:32:32-p271:32:32-p272:64:64-i64:64-i128:128-f80:128-n8:16:32:64-S128"
target triple = "x86_64-pc-linux-gnu"

@.str.53 = private unnamed_addr constant [19 x i8] c"index out of range\00", align 1

; Function Attrs: nounwind uwtable
define internal i32 @luaB_select(ptr noundef %0) #0 {
  %2 = alloca i32, align 4
  %3 = alloca ptr, align 8
  %4 = alloca i32, align 4
  %5 = alloca i32, align 4
  %6 = alloca i32, align 4
  store ptr %0, ptr %3, align 8, !tbaa !4
  call void @llvm.lifetime.start.p0(i64 4, ptr %4) #5
  %7 = load ptr, ptr %3, align 8, !tbaa !4
  %8 = call i32 @lua_gettop(ptr noundef %7)
  store i32 %8, ptr %4, align 4, !tbaa !12
  %9 = load ptr, ptr %3, align 8, !tbaa !4
  %10 = call i32 @lua_type(ptr noundef %9, i32 noundef 1)
  %11 = icmp eq i32 %10, 4
  br i1 %11, label %12, label %23

12:                                               ; preds = %1
  %13 = load ptr, ptr %3, align 8, !tbaa !4
  %14 = call ptr @lua_tolstring(ptr noundef %13, i32 noundef 1, ptr noundef null)
  %15 = load i8, ptr %14, align 1, !tbaa !20
  %16 = sext i8 %15 to i32
  %17 = icmp eq i32 %16, 35
  br i1 %17, label %18, label %23

18:                                               ; preds = %12
  %19 = load ptr, ptr %3, align 8, !tbaa !4
  %20 = load i32, ptr %4, align 4, !tbaa !12
  %21 = sub nsw i32 %20, 1
  %22 = sext i32 %21 to i64
  call void @lua_pushinteger(ptr noundef %19, i64 noundef %22)
  store i32 1, ptr %2, align 4
  store i32 1, ptr %5, align 4
  br label %50

23:                                               ; preds = %12, %1
  call void @llvm.lifetime.start.p0(i64 4, ptr %6) #5
  %24 = load ptr, ptr %3, align 8, !tbaa !4
  %25 = call i64 @luaL_checkinteger(ptr noundef %24, i32 noundef 1)
  %26 = trunc i64 %25 to i32
  store i32 %26, ptr %6, align 4, !tbaa !12
  %27 = load i32, ptr %6, align 4, !tbaa !12
  %28 = icmp slt i32 %27, 0
  br i1 %28, label %29, label %33

29:                                               ; preds = %23
  %30 = load i32, ptr %4, align 4, !tbaa !12
  %31 = load i32, ptr %6, align 4, !tbaa !12
  %32 = add nsw i32 %30, %31
  store i32 %32, ptr %6, align 4, !tbaa !12
  br label %40

33:                                               ; preds = %23
  %34 = load i32, ptr %6, align 4, !tbaa !12
  %35 = load i32, ptr %4, align 4, !tbaa !12
  %36 = icmp sgt i32 %34, %35
  br i1 %36, label %37, label %39

37:                                               ; preds = %33
  %38 = load i32, ptr %4, align 4, !tbaa !12
  store i32 %38, ptr %6, align 4, !tbaa !12
  br label %39

39:                                               ; preds = %37, %33
  br label %40

40:                                               ; preds = %39, %29
  %41 = load i32, ptr %6, align 4, !tbaa !12
  %42 = icmp sle i32 1, %41
  br i1 %42, label %46, label %43

43:                                               ; preds = %40
  %44 = load ptr, ptr %3, align 8, !tbaa !4
  %45 = call i32 @luaL_argerror(ptr noundef %44, i32 noundef 1, ptr noundef @.str.53)
  br label %46

46:                                               ; preds = %43, %40
  %47 = load i32, ptr %4, align 4, !tbaa !12
  %48 = load i32, ptr %6, align 4, !tbaa !12
  %49 = sub nsw i32 %47, %48
  store i32 %49, ptr %2, align 4
  store i32 1, ptr %5, align 4
  call void @llvm.lifetime.end.p0(i64 4, ptr %6) #5
  br label %50

50:                                               ; preds = %46, %18
  call void @llvm.lifetime.end.p0(i64 4, ptr %4) #5
  %51 = load i32, ptr %2, align 4
  ret i32 %51
}