; Function Attrs: nounwind uwtable
define internal i32 @luaB_select(ptr noundef %0) #0 {
  %2 = tail call i32 @lua_gettop(ptr noundef %0) #8
  %3 = tail call i32 @lua_type(ptr noundef %0, i32 noundef 1) #8
  %4 = icmp eq i32 %3, 4
  br i1 %4, label %5, label %12

5:                                                ; preds = %1
  %6 = tail call ptr @lua_tolstring(ptr noundef %0, i32 noundef 1, ptr noundef null) #8
  %7 = load i8, ptr %6, align 1, !tbaa !15
  %8 = icmp eq i8 %7, 35
  br i1 %8, label %9, label %12

9:                                                ; preds = %5
  %10 = add nsw i32 %2, -1
  %11 = sext i32 %10 to i64
  tail call void @lua_pushinteger(ptr noundef %0, i64 noundef %11) #8
  br label %22

12:                                               ; preds = %5, %1
  %13 = tail call i64 @luaL_checkinteger(ptr noundef %0, i32 noundef 1) #8
  %14 = trunc i64 %13 to i32
  %15 = icmp slt i32 %14, 0
  %16 = add nsw i32 %2, %14
  %spec.select = tail call i32 @llvm.smin.i32(i32 %2, i32 %14)
  %.0 = select i1 %15, i32 %16, i32 %spec.select
  %17 = icmp sgt i32 %.0, 0
  br i1 %17, label %20, label %18

18:                                               ; preds = %12
  %19 = tail call i32 @luaL_argerror(ptr noundef %0, i32 noundef 1, ptr noundef nonnull @.str.53) #8
  br label %20

20:                                               ; preds = %18, %12
  %21 = sub nsw i32 %2, %.0
  br label %22

22:                                               ; preds = %20, %9
  %.016 = phi i32 [ 1, %9 ], [ %21, %20 ]
  ret i32 %.016
}